; Function Attrs: mustprogress uwtable
define void @_ZN6google10NullStreamC1EPKciRKNS_7logging8internal13CheckOpStringE(ptr noundef nonnull align 8 dereferenceable(91) %0, ptr noundef readnone captures(none) %1, i32 noundef %2, ptr noundef nonnull readnone align 8 captures(none) dereferenceable(8) %3) unnamed_addr #0 align 2 personality ptr @__gxx_personality_v0 {
  %5 = getelementptr inbounds nuw i8, ptr %0, i64 96
  tail call void @_ZNSt8ios_baseC2Ev(ptr noundef nonnull align 8 dereferenceable(264) %5) #49
  %6 = getelementptr inbounds nuw i8, ptr %0, i64 312
  store ptr null, ptr %6, align 8, !tbaa !22
  %7 = getelementptr inbounds nuw i8, ptr %0, i64 320
  store i8 0, ptr %7, align 8, !tbaa !37
  %8 = getelementptr inbounds nuw i8, ptr %0, i64 321
  store i8 0, ptr %8, align 1, !tbaa !38
  %9 = getelementptr inbounds nuw i8, ptr %0, i64 328
  tail call void @llvm.memset.p0.i64(ptr noundef nonnull align 8 dereferenceable(32) %9, i8 0, i64 32, i1 false)
  store ptr getelementptr inbounds nuw inrange(-24, 16) (i8, ptr @_ZTCN6google10NullStreamE0_So, i64 24), ptr %0, align 8, !tbaa !3
  store ptr getelementptr inbounds nuw inrange(-24, 16) (i8, ptr @_ZTCN6google10NullStreamE0_So, i64 64), ptr %5, align 8, !tbaa !3
  invoke void @_ZNSt9basic_iosIcSt11char_traitsIcEE4initEPSt15basic_streambufIcS1_E(ptr noundef nonnull align 8 dereferenceable(264) %5, ptr noundef null)
          to label %.noexc unwind label %26

.noexc:                                           ; preds = %4
  %10 = getelementptr inbounds nuw i8, ptr %0, i64 88
  store ptr getelementptr inbounds nuw inrange(-24, 16) (i8, ptr @_ZTCN6google10NullStreamE0_NS_10LogMessage9LogStreamE, i64 24), ptr %0, align 8, !tbaa !3
  store ptr getelementptr inbounds nuw inrange(-24, 16) (i8, ptr @_ZTCN6google10NullStreamE0_NS_10LogMessage9LogStreamE, i64 64), ptr %5, align 8, !tbaa !3
  %11 = getelementptr inbounds nuw i8, ptr %0, i64 8
  store ptr getelementptr inbounds nuw inrange(-16, 112) (i8, ptr @_ZTVSt15basic_streambufIcSt11char_traitsIcEE, i64 16), ptr %11, align 8, !tbaa !3
  %12 = getelementptr inbounds nuw i8, ptr %0, i64 16
  %13 = getelementptr inbounds nuw i8, ptr %0, i64 64
  tail call void @llvm.memset.p0.i64(ptr noundef nonnull align 8 dereferenceable(48) %12, i8 0, i64 48, i1 false)
  tail call void @_ZNSt6localeC1Ev(ptr noundef nonnull align 8 dereferenceable(8) %13) #49
  store ptr getelementptr inbounds nuw inrange(-16, 112) (i8, ptr @_ZTVN6google12base_logging12LogStreamBufE, i64 16), ptr %11, align 8, !tbaa !3
  %14 = getelementptr inbounds nuw i8, ptr %0, i64 48
  store ptr %10, ptr %14, align 8, !tbaa !6
  %15 = getelementptr inbounds nuw i8, ptr %0, i64 40
  store ptr %10, ptr %15, align 8, !tbaa !13
  %16 = getelementptr inbounds nuw i8, ptr %0, i64 56
  store ptr %10, ptr %16, align 8, !tbaa !14
  %17 = getelementptr inbounds nuw i8, ptr %0, i64 72
  store i64 0, ptr %17, align 8, !tbaa !15
  %18 = getelementptr inbounds nuw i8, ptr %0, i64 80
  store ptr %0, ptr %18, align 8, !tbaa !21
  %19 = load ptr, ptr %0, align 8, !tbaa !3
  %20 = getelementptr i8, ptr %19, i64 -24
  %21 = load i64, ptr %20, align 8
  %22 = getelementptr inbounds i8, ptr %0, i64 %21
  %23 = invoke noundef ptr @_ZNSt9basic_iosIcSt11char_traitsIcEE5rdbufEPSt15basic_streambufIcS1_E(ptr noundef nonnull align 8 dereferenceable(264) %22, ptr noundef nonnull %11)
          to label %_ZN6google10LogMessage9LogStreamC2EPcil.exit unwind label %24

24:                                               ; preds = %.noexc
  %25 = landingpad { ptr, i32 }
          cleanup
  store ptr getelementptr inbounds nuw inrange(-16, 112) (i8, ptr @_ZTVSt15basic_streambufIcSt11char_traitsIcEE, i64 16), ptr %11, align 8, !tbaa !3
  tail call void @_ZNSt6localeD1Ev(ptr noundef nonnull align 8 dereferenceable(8) %13) #49
  br label %.body

_ZN6google10LogMessage9LogStreamC2EPcil.exit:     ; preds = %.noexc
  store ptr getelementptr inbounds nuw inrange(-24, 16) (i8, ptr @_ZTVN6google10NullStreamE, i64 24), ptr %0, align 8, !tbaa !3
  store ptr getelementptr inbounds nuw inrange(-24, 16) (i8, ptr @_ZTVN6google10NullStreamE, i64 64), ptr %5, align 8, !tbaa !3
  ret void

26:                                               ; preds = %4
  %27 = landingpad { ptr, i32 }
          cleanup
  br label %.body

.body:                                            ; preds = %24, %26
  %eh.lpad-body = phi { ptr, i32 } [ %27, %26 ], [ %25, %24 ]
  tail call void @_ZNSt8ios_baseD2Ev(ptr noundef nonnull align 8 dereferenceable(264) %5) #49
  resume { ptr, i32 } %eh.lpad-body
}